target datalayout = "e-m:e-p270:32:32-p271:32:32-p272:64:64-i64:64-i128:128-f80:128-n8:16:32:64-S128"
target triple = "x86_64-pc-linux-gnu"

%struct.LOCALNET = type { ptr, [4 x i32], [4 x i32], i32 }

@lnet = dso_local global ptr null, align 8
@.str.16 = private unnamed_addr constant [18 x i8] c"Cannot resolv %s\0A\00", align 1

; Function Attrs: nounwind uwtable
define internal i32 @islocalnet(i32 noundef %0, ptr noundef %1) #0 {
  %3 = alloca i32, align 4
  %4 = alloca i32, align 4
  %5 = alloca ptr, align 8
  %6 = alloca ptr, align 8
  store i32 %0, ptr %4, align 4
  store ptr %1, ptr %5, align 8
  %7 = load ptr, ptr @lnet, align 8
  store ptr %7, ptr %6, align 8
  %8 = load ptr, ptr %6, align 8
  %9 = icmp ne ptr %8, null
  br i1 %9, label %11, label %10

10:                                               ; preds = %2
  store i32 0, ptr %3, align 4
  br label %83

11:                                               ; preds = %2
  br label %12

12:                                               ; preds = %78, %11
  %13 = load ptr, ptr %6, align 8
  %14 = icmp ne ptr %13, null
  br i1 %14, label %15, label %82

15:                                               ; preds = %12
  %16 = load ptr, ptr %6, align 8
  %17 = getelementptr inbounds %struct.LOCALNET, ptr %16, i32 0, i32 3
  %18 = load i32, ptr %17, align 8
  %19 = load i32, ptr %4, align 4
  %20 = icmp eq i32 %18, %19
  br i1 %20, label %21, label %78

21:                                               ; preds = %15
  %22 = load ptr, ptr %6, align 8
  %23 = getelementptr inbounds %struct.LOCALNET, ptr %22, i32 0, i32 1
  %24 = getelementptr inbounds [4 x i32], ptr %23, i64 0, i64 0
  %25 = load i32, ptr %24, align 8
  %26 = load ptr, ptr %5, align 8
  %27 = getelementptr inbounds i32, ptr %26, i64 0
  %28 = load i32, ptr %27, align 4
  %29 = load ptr, ptr %6, align 8
  %30 = getelementptr inbounds %struct.LOCALNET, ptr %29, i32 0, i32 2
  %31 = getelementptr inbounds [4 x i32], ptr %30, i64 0, i64 0
  %32 = load i32, ptr %31, align 8
  %33 = and i32 %28, %32
  %34 = icmp eq i32 %25, %33
  br i1 %34, label %35, label %78

35:                                               ; preds = %21
  %36 = load ptr, ptr %6, align 8
  %37 = getelementptr inbounds %struct.LOCALNET, ptr %36, i32 0, i32 1
  %38 = getelementptr inbounds [4 x i32], ptr %37, i64 0, i64 1
  %39 = load i32, ptr %38, align 4
  %40 = load ptr, ptr %5, align 8
  %41 = getelementptr inbounds i32, ptr %40, i64 1
  %42 = load i32, ptr %41, align 4
  %43 = load ptr, ptr %6, align 8
  %44 = getelementptr inbounds %struct.LOCALNET, ptr %43, i32 0, i32 2
  %45 = getelementptr inbounds [4 x i32], ptr %44, i64 0, i64 1
  %46 = load i32, ptr %45, align 4
  %47 = and i32 %42, %46
  %48 = icmp eq i32 %39, %47
  br i1 %48, label %49, label %78

49:                                               ; preds = %35
  %50 = load ptr, ptr %6, align 8
  %51 = getelementptr inbounds %struct.LOCALNET, ptr %50, i32 0, i32 1
  %52 = getelementptr inbounds [4 x i32], ptr %51, i64 0, i64 2
  %53 = load i32, ptr %52, align 8
  %54 = load ptr, ptr %5, align 8
  %55 = getelementptr inbounds i32, ptr %54, i64 2
  %56 = load i32, ptr %55, align 4
  %57 = load ptr, ptr %6, align 8
  %58 = getelementptr inbounds %struct.LOCALNET, ptr %57, i32 0, i32 2
  %59 = getelementptr inbounds [4 x i32], ptr %58, i64 0, i64 2
  %60 = load i32, ptr %59, align 8
  %61 = and i32 %56, %60
  %62 = icmp eq i32 %53, %61
  br i1 %62, label %63, label %78

63:                                               ; preds = %49
  %64 = load ptr, ptr %6, align 8
  %65 = getelementptr inbounds %struct.LOCALNET, ptr %64, i32 0, i32 1
  %66 = getelementptr inbounds [4 x i32], ptr %65, i64 0, i64 3
  %67 = load i32, ptr %66, align 4
  %68 = load ptr, ptr %5, align 8
  %69 = getelementptr inbounds i32, ptr %68, i64 3
  %70 = load i32, ptr %69, align 4
  %71 = load ptr, ptr %6, align 8
  %72 = getelementptr inbounds %struct.LOCALNET, ptr %71, i32 0, i32 2
  %73 = getelementptr inbounds [4 x i32], ptr %72, i64 0, i64 3
  %74 = load i32, ptr %73, align 4
  %75 = and i32 %70, %74
  %76 = icmp eq i32 %67, %75
  br i1 %76, label %77, label %78

77:                                               ; preds = %63
  store i32 1, ptr %3, align 4
  br label %83

78:                                               ; preds = %63, %49, %35, %21, %15
  %79 = load ptr, ptr %6, align 8
  %80 = getelementptr inbounds %struct.LOCALNET, ptr %79, i32 0, i32 0
  %81 = load ptr, ptr %80, align 8
  store ptr %81, ptr %6, align 8
  br label %12

82:                                               ; preds = %12
  store i32 0, ptr %3, align 4
  br label %83

83:                                               ; preds = %82, %77, %10
  %84 = load i32, ptr %3, align 4
  ret i32 %84
}

; Function Attrs: nounwind uwtable
define dso_local i32 @islocalnet_name(ptr noundef %0) #0 {
  %2 = alloca i32, align 4
  %3 = alloca ptr, align 8
  %4 = alloca [4 x i32], align 16
  %5 = alloca i32, align 4
  store ptr %0, ptr %3, align 8
  %6 = load ptr, ptr @lnet, align 8
  %7 = icmp ne ptr %6, null
  br i1 %7, label %9, label %8

8:                                                ; preds = %1
  store i32 0, ptr %2, align 4
  br label %21

9:                                                ; preds = %1
  %10 = load ptr, ptr %3, align 8
  %11 = getelementptr inbounds [4 x i32], ptr %4, i64 0, i64 0
  %12 = call i32 @resolve(ptr noundef %10, ptr noundef %5, ptr noundef %11)
  %13 = icmp ne i32 %12, 0
  br i1 %13, label %14, label %17

14:                                               ; preds = %9
  %15 = load ptr, ptr %3, align 8
  %16 = call i32 (i32, ptr, ...) @logg(i32 noundef 2, ptr noundef @.str.16, ptr noundef %15)
  store i32 0, ptr %2, align 4
  br label %21

17:                                               ; preds = %9
  %18 = load i32, ptr %5, align 4
  %19 = getelementptr inbounds [4 x i32], ptr %4, i64 0, i64 0
  %20 = call i32 @islocalnet(i32 noundef %18, ptr noundef %19)
  store i32 %20, ptr %2, align 4
  br label %21

21:                                               ; preds = %17, %14, %8
  %22 = load i32, ptr %2, align 4
  ret i32 %22
}