; Function Attrs: nounwind uwtable
define dso_local noundef i32 @islocalnet_name(ptr noundef %0) local_unnamed_addr #0 {
  %2 = alloca [4 x i32], align 16
  %3 = alloca i32, align 4
  %4 = load ptr, ptr @lnet, align 8
  %.not = icmp eq ptr %4, null
  br i1 %.not, label %islocalnet.exit, label %5

5:                                                ; preds = %1
  %6 = call fastcc i32 @resolve(ptr noundef %0, ptr noundef nonnull %3, ptr noundef nonnull %2), !range !5
  %.not2 = icmp eq i32 %6, 0
  br i1 %.not2, label %9, label %7

7:                                                ; preds = %5
  %8 = tail call i32 (i32, ptr, ...) @logg(i32 noundef 2, ptr noundef nonnull @.str.16, ptr noundef %0) #13
  br label %islocalnet.exit

9:                                                ; preds = %5
  %10 = load i32, ptr %3, align 4
  %11 = load ptr, ptr @lnet, align 8
  %.not.i = icmp eq ptr %11, null
  br i1 %.not.i, label %islocalnet.exit, label %.preheader.i

.preheader.i:                                     ; preds = %9
  %12 = getelementptr inbounds i8, ptr %2, i64 4
  %13 = getelementptr inbounds i8, ptr %2, i64 8
  %14 = getelementptr inbounds i8, ptr %2, i64 12
  %15 = load i32, ptr %2, align 16
  %16 = load i32, ptr %12, align 4
  %17 = load i32, ptr %13, align 8
  %18 = load i32, ptr %14, align 4
  br label %19

19:                                               ; preds = %51, %.preheader.i
  %.020.i = phi ptr [ %11, %.preheader.i ], [ %52, %51 ]
  %20 = getelementptr inbounds i8, ptr %.020.i, i64 40
  %21 = load i32, ptr %20, align 8
  %22 = icmp eq i32 %21, %10
  br i1 %22, label %23, label %51

23:                                               ; preds = %19
  %24 = getelementptr inbounds i8, ptr %.020.i, i64 8
  %25 = load i32, ptr %24, align 8
  %26 = getelementptr inbounds i8, ptr %.020.i, i64 24
  %27 = load i32, ptr %26, align 8
  %28 = and i32 %27, %15
  %29 = icmp eq i32 %25, %28
  br i1 %29, label %30, label %51

30:                                               ; preds = %23
  %31 = getelementptr inbounds i8, ptr %.020.i, i64 12
  %32 = load i32, ptr %31, align 4
  %33 = getelementptr inbounds i8, ptr %.020.i, i64 28
  %34 = load i32, ptr %33, align 4
  %35 = and i32 %34, %16
  %36 = icmp eq i32 %32, %35
  br i1 %36, label %37, label %51

37:                                               ; preds = %30
  %38 = getelementptr inbounds i8, ptr %.020.i, i64 16
  %39 = load i32, ptr %38, align 8
  %40 = getelementptr inbounds i8, ptr %.020.i, i64 32
  %41 = load i32, ptr %40, align 8
  %42 = and i32 %41, %17
  %43 = icmp eq i32 %39, %42
  br i1 %43, label %44, label %51

44:                                               ; preds = %37
  %45 = getelementptr inbounds i8, ptr %.020.i, i64 20
  %46 = load i32, ptr %45, align 4
  %47 = getelementptr inbounds i8, ptr %.020.i, i64 36
  %48 = load i32, ptr %47, align 4
  %49 = and i32 %48, %18
  %50 = icmp eq i32 %46, %49
  br i1 %50, label %islocalnet.exit, label %51

51:                                               ; preds = %44, %37, %30, %23, %19
  %52 = load ptr, ptr %.020.i, align 8
  %.not19.i = icmp eq ptr %52, null
  br i1 %.not19.i, label %islocalnet.exit, label %19

islocalnet.exit:                                  ; preds = %51, %44, %9, %1, %7
  %.0 = phi i32 [ 0, %7 ], [ 0, %1 ], [ 0, %9 ], [ 1, %44 ], [ 0, %51 ]
  ret i32 %.0
}